; Function Attrs: mustprogress uwtable
define dso_local void @_ZNK4pbrt10TexCoord2D8ToStringB5cxx11Ev(ptr noalias nonnull sret(%"class.std::__cxx11::basic_string") align 8 %agg.result, ptr noundef nonnull align 4 dereferenceable(24) %this) local_unnamed_addr #0 align 2 personality ptr @__gxx_personality_v0 {
entry:
  %dsdx = getelementptr inbounds i8, ptr %this, i64 8
  %dsdy = getelementptr inbounds i8, ptr %this, i64 12
  %dtdx = getelementptr inbounds i8, ptr %this, i64 16
  %dtdy = getelementptr inbounds i8, ptr %this, i64 20
  tail call void @_ZNSt7__cxx1112basic_stringIcSt11char_traitsIcESaIcEEC1Ev(ptr noundef nonnull align 8 dereferenceable(32) %agg.result) #23
  invoke void @_ZN4pbrt6detail21stringPrintfRecursiveIRKNS_6Point2IfEEJRKfS7_S7_S7_EEEvPNSt7__cxx1112basic_stringIcSt11char_traitsIcESaIcEEEPKcOT_DpOT0_(ptr noundef nonnull %agg.result, ptr noundef nonnull @.str.2, ptr noundef nonnull align 4 dereferenceable(8) %this, ptr noundef nonnull align 4 dereferenceable(4) %dsdx, ptr noundef nonnull align 4 dereferenceable(4) %dsdy, ptr noundef nonnull align 4 dereferenceable(4) %dtdx, ptr noundef nonnull align 4 dereferenceable(4) %dtdy)
          to label %_ZN4pbrt12StringPrintfIJRKNS_6Point2IfEERKfS6_S6_S6_EEENSt7__cxx1112basic_stringIcSt11char_traitsIcESaIcEEEPKcDpOT_.exit unwind label %lpad.i

lpad.i:                                           ; preds = %entry
  %0 = landingpad { ptr, i32 }
          cleanup
  tail call void @_ZNSt7__cxx1112basic_stringIcSt11char_traitsIcESaIcEED1Ev(ptr noundef nonnull align 8 dereferenceable(32) %agg.result) #23
  resume { ptr, i32 } %0

_ZN4pbrt12StringPrintfIJRKNS_6Point2IfEERKfS6_S6_S6_EEENSt7__cxx1112basic_stringIcSt11char_traitsIcESaIcEEEPKcDpOT_.exit: ; preds = %entry
  ret void
}